; ModuleID = 'source-C-CXX/42/1147.cpp'
source_filename = "source-C-CXX/42/1147.cpp"
target datalayout = "e-m:e-p270:32:32-p271:32:32-p272:64:64-i64:64-f80:128-n8:16:32:64-S128"
target triple = "x86_64-pc-linux-gnu"

%"class.std::ios_base::Init" = type { i8 }
%"class.std::basic_istream" = type { i32 (...)**, i64, %"class.std::basic_ios" }
%"class.std::basic_ios" = type { %"class.std::ios_base", %"class.std::basic_ostream"*, i8, i8, %"class.std::basic_streambuf"*, %"class.std::ctype"*, %"class.std::num_put"*, %"class.std::num_get"* }
%"class.std::ios_base" = type { i32 (...)**, i64, i64, i32, i32, i32, %"struct.std::ios_base::_Callback_list"*, %"struct.std::ios_base::_Words", [8 x %"struct.std::ios_base::_Words"], i32, %"struct.std::ios_base::_Words"*, %"class.std::locale" }
%"struct.std::ios_base::_Callback_list" = type { %"struct.std::ios_base::_Callback_list"*, void (i32, %"class.std::ios_base"*, i32)*, i32, i32 }
%"struct.std::ios_base::_Words" = type { i8*, i64 }
%"class.std::locale" = type { %"class.std::locale::_Impl"* }
%"class.std::locale::_Impl" = type { i32, %"class.std::locale::facet"**, i64, %"class.std::locale::facet"**, i8** }
%"class.std::locale::facet" = type <{ i32 (...)**, i32, [4 x i8] }>
%"class.std::basic_ostream" = type { i32 (...)**, %"class.std::basic_ios" }
%"class.std::basic_streambuf" = type { i32 (...)**, i8*, i8*, i8*, i8*, i8*, i8*, %"class.std::locale" }
%"class.std::ctype" = type <{ %"class.std::locale::facet.base", [4 x i8], %struct.__locale_struct*, i8, [7 x i8], i32*, i32*, i16*, i8, [256 x i8], [256 x i8], i8, [6 x i8] }>
%"class.std::locale::facet.base" = type <{ i32 (...)**, i32 }>
%struct.__locale_struct = type { [13 x %struct.__locale_data*], i16*, i32*, i32*, [13 x i8*] }
%struct.__locale_data = type opaque
%"class.std::num_put" = type { %"class.std::locale::facet.base", [4 x i8] }
%"class.std::num_get" = type { %"class.std::locale::facet.base", [4 x i8] }

@_ZStL8__ioinit = internal global %"class.std::ios_base::Init" zeroinitializer, align 1
@__dso_handle = external hidden global i8
@_ZSt3cin = external global %"class.std::basic_istream", align 8
@_ZSt4cout = external global %"class.std::basic_ostream", align 8
@.str = private unnamed_addr constant [2 x i8] c" \00", align 1
@llvm.global_ctors = appending global [1 x { i32, void ()*, i8* }] [{ i32, void ()*, i8* } { i32 65535, void ()* @_GLOBAL__sub_I_1147.cpp, i8* null }]

declare void @_ZNSt8ios_base4InitC1Ev(%"class.std::ios_base::Init"* nonnull align 1 dereferenceable(1)) unnamed_addr #0

; Function Attrs: nounwind
declare void @_ZNSt8ios_base4InitD1Ev(%"class.std::ios_base::Init"* nonnull align 1 dereferenceable(1)) unnamed_addr #1

; Function Attrs: nofree nounwind
declare i32 @__cxa_atexit(void (i8*)*, i8*, i8*) local_unnamed_addr #2

; Function Attrs: mustprogress norecurse sspstrong uwtable
define dso_local i32 @main() local_unnamed_addr #3 {
  %1 = alloca i32, align 4
  %2 = bitcast i32* %1 to i8*
  call void @llvm.lifetime.start.p0i8(i64 4, i8* nonnull %2) #7
  %3 = call nonnull align 8 dereferenceable(16) %"class.std::basic_istream"* @_ZNSirsERi(%"class.std::basic_istream"* nonnull align 8 dereferenceable(16) @_ZSt3cin, i32* nonnull align 4 dereferenceable(4) %1)
  %4 = load i32, i32* %1, align 4, !tbaa !5
  %5 = icmp slt i32 %4, 6
  br i1 %5, label %92, label %6

6:                                                ; preds = %0, %87
  %7 = phi i32 [ %88, %87 ], [ %4, %0 ]
  %8 = phi i32 [ %89, %87 ], [ 3, %0 ]
  %9 = add nsw i32 %8, -1
  %10 = icmp ne i32 %8, 3
  br label %11

11:                                               ; preds = %6, %82
  %12 = phi i32 [ %7, %6 ], [ %83, %82 ]
  %13 = phi i32 [ %7, %6 ], [ %84, %82 ]
  %14 = phi i32 [ %7, %6 ], [ %85, %82 ]
  %15 = phi i32 [ 2, %6 ], [ %19, %82 ]
  %16 = urem i32 %8, %15
  %17 = icmp eq i32 %16, 0
  br i1 %17, label %87, label %18

18:                                               ; preds = %11
  %19 = add nuw nsw i32 %15, 1
  %20 = icmp ne i32 %19, %9
  %21 = sub nsw i32 %14, %8
  %22 = icmp slt i32 %21, 3
  %23 = and i1 %10, %20
  %24 = select i1 %23, i1 true, i1 %22
  %25 = and i32 %21, 1
  %26 = icmp eq i32 %25, 0
  %27 = select i1 %24, i1 true, i1 %26
  br i1 %27, label %82, label %31

28:                                               ; preds = %77
  %29 = srem i32 %80, %36
  %30 = icmp eq i32 %29, 0
  br i1 %30, label %82, label %31, !llvm.loop !9

31:                                               ; preds = %18, %28
  %32 = phi i32 [ %36, %28 ], [ 2, %18 ]
  %33 = phi i32 [ %80, %28 ], [ %21, %18 ]
  %34 = phi i32 [ %79, %28 ], [ %13, %18 ]
  %35 = phi i32 [ %78, %28 ], [ %12, %18 ]
  %36 = add nuw nsw i32 %32, 1
  %37 = add nsw i32 %33, -1
  %38 = icmp eq i32 %36, %37
  %39 = icmp eq i32 %33, 3
  %40 = or i1 %39, %38
  br i1 %40, label %41, label %77

41:                                               ; preds = %31
  %42 = call nonnull align 8 dereferenceable(8) %"class.std::basic_ostream"* @_ZNSolsEi(%"class.std::basic_ostream"* nonnull align 8 dereferenceable(8) @_ZSt4cout, i32 %8)
  %43 = call nonnull align 8 dereferenceable(8) %"class.std::basic_ostream"* @_ZSt16__ostream_insertIcSt11char_traitsIcEERSt13basic_ostreamIT_T0_ES6_PKS3_l(%"class.std::basic_ostream"* nonnull align 8 dereferenceable(8) %42, i8* nonnull getelementptr inbounds ([2 x i8], [2 x i8]* @.str, i64 0, i64 0), i64 1)
  %44 = load i32, i32* %1, align 4, !tbaa !5
  %45 = sub nsw i32 %44, %8
  %46 = call nonnull align 8 dereferenceable(8) %"class.std::basic_ostream"* @_ZNSolsEi(%"class.std::basic_ostream"* nonnull align 8 dereferenceable(8) %42, i32 %45)
  %47 = bitcast %"class.std::basic_ostream"* %46 to i8**
  %48 = load i8*, i8** %47, align 8, !tbaa !11
  %49 = getelementptr i8, i8* %48, i64 -24
  %50 = bitcast i8* %49 to i64*
  %51 = load i64, i64* %50, align 8
  %52 = bitcast %"class.std::basic_ostream"* %46 to i8*
  %53 = add nsw i64 %51, 240
  %54 = getelementptr inbounds i8, i8* %52, i64 %53
  %55 = bitcast i8* %54 to %"class.std::ctype"**
  %56 = load %"class.std::ctype"*, %"class.std::ctype"** %55, align 8, !tbaa !13
  %57 = icmp eq %"class.std::ctype"* %56, null
  br i1 %57, label %58, label %59

58:                                               ; preds = %41
  call void @_ZSt16__throw_bad_castv() #8
  unreachable

59:                                               ; preds = %41
  %60 = getelementptr inbounds %"class.std::ctype", %"class.std::ctype"* %56, i64 0, i32 8
  %61 = load i8, i8* %60, align 8, !tbaa !17
  %62 = icmp eq i8 %61, 0
  br i1 %62, label %66, label %63

63:                                               ; preds = %59
  %64 = getelementptr inbounds %"class.std::ctype", %"class.std::ctype"* %56, i64 0, i32 9, i64 10
  %65 = load i8, i8* %64, align 1, !tbaa !19
  br label %72

66:                                               ; preds = %59
  call void @_ZNKSt5ctypeIcE13_M_widen_initEv(%"class.std::ctype"* nonnull align 8 dereferenceable(570) %56)
  %67 = bitcast %"class.std::ctype"* %56 to i8 (%"class.std::ctype"*, i8)***
  %68 = load i8 (%"class.std::ctype"*, i8)**, i8 (%"class.std::ctype"*, i8)*** %67, align 8, !tbaa !11
  %69 = getelementptr inbounds i8 (%"class.std::ctype"*, i8)*, i8 (%"class.std::ctype"*, i8)** %68, i64 6
  %70 = load i8 (%"class.std::ctype"*, i8)*, i8 (%"class.std::ctype"*, i8)** %69, align 8
  %71 = call signext i8 %70(%"class.std::ctype"* nonnull align 8 dereferenceable(570) %56, i8 signext 10)
  br label %72

72:                                               ; preds = %63, %66
  %73 = phi i8 [ %65, %63 ], [ %71, %66 ]
  %74 = call nonnull align 8 dereferenceable(8) %"class.std::basic_ostream"* @_ZNSo3putEc(%"class.std::basic_ostream"* nonnull align 8 dereferenceable(8) %46, i8 signext %73)
  %75 = call nonnull align 8 dereferenceable(8) %"class.std::basic_ostream"* @_ZNSo5flushEv(%"class.std::basic_ostream"* nonnull align 8 dereferenceable(8) %74)
  %76 = load i32, i32* %1, align 4, !tbaa !5
  br label %77

77:                                               ; preds = %72, %31
  %78 = phi i32 [ %76, %72 ], [ %35, %31 ]
  %79 = phi i32 [ %76, %72 ], [ %34, %31 ]
  %80 = sub nsw i32 %79, %8
  %81 = icmp slt i32 %36, %80
  br i1 %81, label %28, label %82, !llvm.loop !9

82:                                               ; preds = %77, %28, %18
  %83 = phi i32 [ %12, %18 ], [ %78, %28 ], [ %78, %77 ]
  %84 = phi i32 [ %13, %18 ], [ %79, %28 ], [ %79, %77 ]
  %85 = phi i32 [ %14, %18 ], [ %79, %28 ], [ %79, %77 ]
  %86 = icmp eq i32 %19, %8
  br i1 %86, label %87, label %11, !llvm.loop !20

87:                                               ; preds = %11, %82
  %88 = phi i32 [ %12, %11 ], [ %83, %82 ]
  %89 = add nuw nsw i32 %8, 2
  %90 = sdiv i32 %88, 2
  %91 = icmp sgt i32 %89, %90
  br i1 %91, label %92, label %6, !llvm.loop !21

92:                                               ; preds = %87, %0
  call void @llvm.lifetime.end.p0i8(i64 4, i8* nonnull %2) #7
  ret i32 0
}

; Function Attrs: argmemonly mustprogress nofree nosync nounwind willreturn
declare void @llvm.lifetime.start.p0i8(i64 immarg, i8* nocapture) #4

declare nonnull align 8 dereferenceable(16) %"class.std::basic_istream"* @_ZNSirsERi(%"class.std::basic_istream"* nonnull align 8 dereferenceable(16), i32* nonnull align 4 dereferenceable(4)) local_unnamed_addr #0

declare nonnull align 8 dereferenceable(8) %"class.std::basic_ostream"* @_ZNSolsEi(%"class.std::basic_ostream"* nonnull align 8 dereferenceable(8), i32) local_unnamed_addr #0

; Function Attrs: argmemonly mustprogress nofree nosync nounwind willreturn
declare void @llvm.lifetime.end.p0i8(i64 immarg, i8* nocapture) #4

declare nonnull align 8 dereferenceable(8) %"class.std::basic_ostream"* @_ZSt16__ostream_insertIcSt11char_traitsIcEERSt13basic_ostreamIT_T0_ES6_PKS3_l(%"class.std::basic_ostream"* nonnull align 8 dereferenceable(8), i8*, i64) local_unnamed_addr #0

declare nonnull align 8 dereferenceable(8) %"class.std::basic_ostream"* @_ZNSo3putEc(%"class.std::basic_ostream"* nonnull align 8 dereferenceable(8), i8 signext) local_unnamed_addr #0

declare nonnull align 8 dereferenceable(8) %"class.std::basic_ostream"* @_ZNSo5flushEv(%"class.std::basic_ostream"* nonnull align 8 dereferenceable(8)) local_unnamed_addr #0

; Function Attrs: noreturn
declare void @_ZSt16__throw_bad_castv() local_unnamed_addr #5

declare void @_ZNKSt5ctypeIcE13_M_widen_initEv(%"class.std::ctype"* nonnull align 8 dereferenceable(570)) local_unnamed_addr #0

; Function Attrs: sspstrong uwtable
define internal void @_GLOBAL__sub_I_1147.cpp() #6 section ".text.startup" {
  tail call void @_ZNSt8ios_base4InitC1Ev(%"class.std::ios_base::Init"* nonnull align 1 dereferenceable(1) @_ZStL8__ioinit)
  %1 = tail call i32 @__cxa_atexit(void (i8*)* bitcast (void (%"class.std::ios_base::Init"*)* @_ZNSt8ios_base4InitD1Ev to void (i8*)*), i8* getelementptr inbounds (%"class.std::ios_base::Init", %"class.std::ios_base::Init"* @_ZStL8__ioinit, i64 0, i32 0), i8* nonnull @__dso_handle) #7
  ret void
}


!llvm.module.flags = !{!0, !1, !2, !3}
!llvm.ident = !{!4}

!0 = !{i32 1, !"wchar_size", i32 4}
!1 = !{i32 7, !"PIC Level", i32 2}
!2 = !{i32 7, !"PIE Level", i32 2}
!3 = !{i32 7, !"uwtable", i32 1}
!4 = !{!"clang version 13.0.0"}
!5 = !{!6, !6, i64 0}
!6 = !{!"int", !7, i64 0}
!7 = !{!"omnipotent char", !8, i64 0}
!8 = !{!"Simple C++ TBAA"}
!9 = distinct !{!9, !10}
!10 = !{!"llvm.loop.mustprogress"}
!11 = !{!12, !12, i64 0}
!12 = !{!"vtable pointer", !8, i64 0}
!13 = !{!14, !15, i64 240}
!14 = !{!"_ZTSSt9basic_iosIcSt11char_traitsIcEE", !15, i64 216, !7, i64 224, !16, i64 225, !15, i64 232, !15, i64 240, !15, i64 248, !15, i64 256}
!15 = !{!"any pointer", !7, i64 0}
!16 = !{!"bool", !7, i64 0}
!17 = !{!18, !7, i64 56}
!18 = !{!"_ZTSSt5ctypeIcE", !15, i64 16, !16, i64 24, !15, i64 32, !15, i64 40, !15, i64 48, !7, i64 56, !7, i64 57, !7, i64 313, !7, i64 569}
!19 = !{!7, !7, i64 0}
!20 = distinct !{!20, !10}
!21 = distinct !{!21, !10}
